target datalayout = "e-m:e-p270:32:32-p271:32:32-p272:64:64-i64:64-i128:128-f80:128-n8:16:32:64-S128"
target triple = "x86_64-pc-linux-gnu"

; Function Attrs: nounwind sspstrong uwtable
define internal i64 @fun_so_from_utf_16(ptr noundef %0, ptr noundef %1, i64 noundef %2, ptr noundef %3, i64 noundef %4) #0 {
  %6 = alloca i64, align 8
  %7 = alloca ptr, align 8
  %8 = alloca ptr, align 8
  %9 = alloca i64, align 8
  %10 = alloca ptr, align 8
  %11 = alloca i64, align 8
  %12 = alloca ptr, align 8
  %13 = alloca i32, align 4
  store ptr %0, ptr %7, align 8, !tbaa !6
  store ptr %1, ptr %8, align 8, !tbaa !10
  store i64 %2, ptr %9, align 8, !tbaa !12
  store ptr %3, ptr %10, align 8, !tbaa !10
  store i64 %4, ptr %11, align 8, !tbaa !12
  call void @llvm.lifetime.start.p0(i64 8, ptr %12) #3
  %14 = load ptr, ptr %7, align 8, !tbaa !6
  store ptr %14, ptr %12, align 8, !tbaa !10
  %15 = load ptr, ptr %12, align 8, !tbaa !10
  %16 = load i8, ptr %15, align 1, !tbaa !14
  %17 = zext i8 %16 to i32
  switch i32 %17, label %32 [
    i32 1, label %18
    i32 2, label %25
  ]

18:                                               ; preds = %5
  %19 = load ptr, ptr %7, align 8, !tbaa !6
  %20 = load ptr, ptr %8, align 8, !tbaa !10
  %21 = load i64, ptr %9, align 8, !tbaa !12
  %22 = load ptr, ptr %10, align 8, !tbaa !10
  %23 = load i64, ptr %11, align 8, !tbaa !12
  %24 = call i64 @fun_so_from_utf_16be(ptr noundef %19, ptr noundef %20, i64 noundef %21, ptr noundef %22, i64 noundef %23)
  store i64 %24, ptr %6, align 8
  store i32 1, ptr %13, align 4
  br label %33

25:                                               ; preds = %5
  %26 = load ptr, ptr %7, align 8, !tbaa !6
  %27 = load ptr, ptr %8, align 8, !tbaa !10
  %28 = load i64, ptr %9, align 8, !tbaa !12
  %29 = load ptr, ptr %10, align 8, !tbaa !10
  %30 = load i64, ptr %11, align 8, !tbaa !12
  %31 = call i64 @fun_so_from_utf_16le(ptr noundef %26, ptr noundef %27, i64 noundef %28, ptr noundef %29, i64 noundef %30)
  store i64 %31, ptr %6, align 8
  store i32 1, ptr %13, align 4
  br label %33

32:                                               ; preds = %5
  store i64 0, ptr %6, align 8
  store i32 1, ptr %13, align 4
  br label %33

33:                                               ; preds = %32, %25, %18
  call void @llvm.lifetime.end.p0(i64 8, ptr %12) #3
  %34 = load i64, ptr %6, align 8
  ret i64 %34
}