; Function Attrs: mustprogress nofree norecurse nosync nounwind sspstrong willreturn memory(argmem: readwrite) uwtable
define internal range(i64 0, 5) i64 @fun_so_from_utf_16(ptr noundef readonly captures(none) %0, ptr noundef readonly captures(none) %1, i64 %2, ptr noundef writeonly captures(none) %3, i64 %4) #2 {
  %6 = load i8, ptr %0, align 1, !tbaa !6
  switch i8 %6, label %11 [
    i8 1, label %7
    i8 2, label %9
  ]

7:                                                ; preds = %5
  %8 = tail call i64 @fun_so_from_utf_16be(ptr nonnull poison, ptr noundef %1, i64 poison, ptr noundef %3, i64 poison)
  br label %11

9:                                                ; preds = %5
  %10 = tail call i64 @fun_so_from_utf_16le(ptr nonnull poison, ptr noundef %1, i64 poison, ptr noundef %3, i64 poison)
  br label %11

11:                                               ; preds = %5, %9, %7
  %.0 = phi i64 [ %10, %9 ], [ %8, %7 ], [ 0, %5 ]
  ret i64 %.0
}